; Function Attrs: mustprogress uwtable
define void @_ZN3zmq22stream_listener_base_t12process_plugEv(ptr noundef nonnull align 8 dereferenceable(1520) %0) unnamed_addr #0 align 2 {
  %2 = getelementptr inbounds nuw i8, ptr %0, i64 1448
  %3 = getelementptr inbounds nuw i8, ptr %0, i64 1464
  %4 = load i32, ptr %3, align 8, !tbaa !6
  %5 = tail call noundef ptr @_ZN3zmq11io_object_t6add_fdEi(ptr noundef nonnull align 8 dereferenceable(16) %2, i32 noundef %4)
  %6 = getelementptr inbounds nuw i8, ptr %0, i64 1472
  store ptr %5, ptr %6, align 8, !tbaa !65
  tail call void @_ZN3zmq11io_object_t10set_pollinEPv(ptr noundef nonnull align 8 dereferenceable(16) %2, ptr noundef %5)
  ret void
}